; Function Attrs: nounwind uwtable
define ptr @l_Array_foldlMUnsafe_fold___at___private_Lean_Elab_PatternVar_0__Lean_Elab_Term_CollectPatternVars_throwWrongArgCount___spec__2(ptr noundef readonly captures(none) %0, i64 noundef %1, i64 noundef %2, ptr noundef %3) local_unnamed_addr #0 {
  %.not44 = icmp eq i64 %1, %2
  br i1 %.not44, label %._crit_edge, label %.lr.ph

.lr.ph:                                           ; preds = %4
  %5 = getelementptr inbounds nuw i8, ptr %0, i64 24
  br label %6

6:                                                ; preds = %.lr.ph, %lean_dec.exit
  %.02346 = phi i64 [ %1, %.lr.ph ], [ %36, %lean_dec.exit ]
  %.02545 = phi ptr [ %3, %.lr.ph ], [ %.227, %lean_dec.exit ]
  %7 = getelementptr inbounds nuw [0 x ptr], ptr %5, i64 0, i64 %.02346
  %8 = load ptr, ptr %7, align 8, !tbaa !11
  %9 = ptrtoint ptr %8 to i64
  %10 = and i64 %9, 1
  %.not.i31 = icmp eq i64 %10, 0
  br i1 %.not.i31, label %11, label %lean_array_uget.exit

11:                                               ; preds = %6
  %.val.i.i = load i32, ptr %8, align 4, !tbaa !8
  %12 = icmp sgt i32 %.val.i.i, 0
  br i1 %12, label %13, label %15, !prof !15

13:                                               ; preds = %11
  %14 = add nuw i32 %.val.i.i, 1
  store i32 %14, ptr %8, align 4, !tbaa !8
  br label %lean_array_uget.exit

15:                                               ; preds = %11
  %.not.i.i = icmp eq i32 %.val.i.i, 0
  br i1 %.not.i.i, label %lean_array_uget.exit, label %16

16:                                               ; preds = %15
  tail call void @lean_inc_ref_cold(ptr noundef nonnull %8) #6
  br label %lean_array_uget.exit

lean_array_uget.exit:                             ; preds = %6, %13, %15, %16
  %17 = getelementptr inbounds nuw i8, ptr %8, i64 16
  %18 = load ptr, ptr %17, align 8, !tbaa !11
  %19 = ptrtoint ptr %18 to i64
  %20 = and i64 %19, 1
  %.not42 = icmp eq i64 %20, 0
  br i1 %.not42, label %21, label %lean_dec.exit28

21:                                               ; preds = %lean_array_uget.exit
  %.val.i = load i32, ptr %18, align 4, !tbaa !8
  %22 = icmp sgt i32 %.val.i, 0
  br i1 %22, label %23, label %25, !prof !15

23:                                               ; preds = %21
  %24 = add nuw i32 %.val.i, 1
  store i32 %24, ptr %18, align 4, !tbaa !8
  br label %27

25:                                               ; preds = %21
  %.not.i32 = icmp eq i32 %.val.i, 0
  br i1 %.not.i32, label %lean_dec.exit28, label %26

26:                                               ; preds = %25
  tail call void @lean_inc_ref_cold(ptr noundef nonnull %18) #6
  %.pr = load i32, ptr %18, align 4, !tbaa !8
  br label %27

27:                                               ; preds = %26, %23
  %28 = phi i32 [ %.pr, %26 ], [ %24, %23 ]
  %29 = icmp sgt i32 %28, 1
  br i1 %29, label %30, label %32, !prof !19

30:                                               ; preds = %27
  %31 = add nsw i32 %28, -1
  store i32 %31, ptr %18, align 4, !tbaa !8
  br label %lean_dec.exit28

32:                                               ; preds = %27
  %.not.i = icmp eq i32 %28, 0
  br i1 %.not.i, label %lean_dec.exit28, label %33

33:                                               ; preds = %32
  tail call void @lean_dec_ref_cold(ptr noundef nonnull %18) #6
  br label %lean_dec.exit28

lean_dec.exit28:                                  ; preds = %lean_array_uget.exit, %25, %33, %32, %30
  %.in = lshr i64 %19, 1
  %34 = trunc i64 %.in to i8
  %35 = tail call zeroext i8 @l_Lean_BinderInfo_isExplicit(i8 noundef zeroext %34) #6
  %36 = add i64 %.02346, 1
  %37 = icmp eq i8 %35, 0
  br i1 %37, label %38, label %46

38:                                               ; preds = %lean_dec.exit28
  br i1 %.not.i31, label %39, label %lean_dec.exit

39:                                               ; preds = %38
  %40 = load i32, ptr %8, align 4, !tbaa !8
  %41 = icmp sgt i32 %40, 1
  br i1 %41, label %42, label %44, !prof !15

42:                                               ; preds = %39
  %43 = add nsw i32 %40, -1
  store i32 %43, ptr %8, align 4, !tbaa !8
  br label %lean_dec.exit

44:                                               ; preds = %39
  %.not.i29 = icmp eq i32 %40, 0
  br i1 %.not.i29, label %lean_dec.exit, label %45

45:                                               ; preds = %44
  tail call void @lean_dec_ref_cold(ptr noundef nonnull %8) #6
  br label %lean_dec.exit

46:                                               ; preds = %lean_dec.exit28
  %47 = tail call ptr @lean_array_push(ptr noundef %.02545, ptr noundef nonnull %8) #6
  br label %lean_dec.exit

lean_dec.exit:                                    ; preds = %38, %42, %44, %45, %46
  %.227 = phi ptr [ %47, %46 ], [ %.02545, %45 ], [ %.02545, %44 ], [ %.02545, %42 ], [ %.02545, %38 ]
  %.not = icmp eq i64 %36, %2
  br i1 %.not, label %._crit_edge, label %6

._crit_edge:                                      ; preds = %lean_dec.exit, %4
  %.025.lcssa = phi ptr [ %3, %4 ], [ %.227, %lean_dec.exit ]
  ret ptr %.025.lcssa
}